; Function Attrs: mustprogress uwtable
define void @_ZN10open_spiel10algorithms13InfostateTree13RebalanceTreeEv(ptr noundef nonnull readonly align 8 captures(none) dereferenceable(112) %0) local_unnamed_addr #3 align 2 {
  %2 = getelementptr inbounds nuw i8, ptr %0, i64 24
  %3 = load ptr, ptr %2, align 8
  %4 = getelementptr inbounds nuw i8, ptr %0, i64 32
  %5 = load i64, ptr %4, align 8
  %6 = trunc i64 %5 to i32
  tail call void @_ZN10open_spiel10algorithms13InfostateNode16RebalanceSubtreeEii(ptr noundef nonnull align 8 dereferenceable(240) %3, i32 noundef %6, i32 noundef 0)
  ret void
}